target datalayout = "e-m:e-p270:32:32-p271:32:32-p272:64:64-i64:64-i128:128-f80:128-n8:16:32:64-S128"
target triple = "x86_64-pc-linux-gnu"

%struct.Vec_Str_t_ = type { i32, i32, ptr }

@.str.17 = private unnamed_addr constant [3 x i8] c"wb\00", align 1
@.str.98 = private unnamed_addr constant [8 x i8] c"patch.v\00", align 1
@.str.99 = private unnamed_addr constant [35 x i8] c"Finished dumping patch file \22%s\22.\0A\00", align 1
@.str.100 = private unnamed_addr constant [7 x i8] c"temp.v\00", align 1
@.str.101 = private unnamed_addr constant [42 x i8] c"Finished dumping intermediate file \22%s\22.\0A\00", align 1
@.str.102 = private unnamed_addr constant [43 x i8] c"Finished dumping the resulting file \22%s\22.\0A\00", align 1
@.str.103 = private unnamed_addr constant [3 x i8] c"%s\00", align 1

; Function Attrs: nounwind uwtable
define internal ptr @Vec_StrArray(ptr noundef %0) #0 {
  %2 = alloca ptr, align 8
  store ptr %0, ptr %2, align 8
  %3 = load ptr, ptr %2, align 8
  %4 = getelementptr inbounds %struct.Vec_Str_t_, ptr %3, i32 0, i32 2
  %5 = load ptr, ptr %4, align 8
  ret ptr %5
}

; Function Attrs: nounwind uwtable
define internal void @Vec_StrFree(ptr noundef %0) #0 {
  %2 = alloca ptr, align 8
  store ptr %0, ptr %2, align 8
  %3 = load ptr, ptr %2, align 8
  %4 = getelementptr inbounds %struct.Vec_Str_t_, ptr %3, i32 0, i32 2
  %5 = load ptr, ptr %4, align 8
  %6 = icmp ne ptr %5, null
  br i1 %6, label %7, label %13

7:                                                ; preds = %1
  %8 = load ptr, ptr %2, align 8
  %9 = getelementptr inbounds %struct.Vec_Str_t_, ptr %8, i32 0, i32 2
  %10 = load ptr, ptr %9, align 8
  call void @free(ptr noundef %10) #13
  %11 = load ptr, ptr %2, align 8
  %12 = getelementptr inbounds %struct.Vec_Str_t_, ptr %11, i32 0, i32 2
  store ptr null, ptr %12, align 8
  br label %14

13:                                               ; preds = %1
  br label %14

14:                                               ; preds = %13, %7
  %15 = load ptr, ptr %2, align 8
  %16 = icmp ne ptr %15, null
  br i1 %16, label %17, label %19

17:                                               ; preds = %14
  %18 = load ptr, ptr %2, align 8
  call void @free(ptr noundef %18) #13
  store ptr null, ptr %2, align 8
  br label %20

19:                                               ; preds = %14
  br label %20

20:                                               ; preds = %19, %17
  ret void
}

; Function Attrs: nounwind uwtable
define void @Acb_GenerateFilePatch(ptr noundef %0, ptr noundef %1) #0 {
  %3 = alloca ptr, align 8
  %4 = alloca ptr, align 8
  %5 = alloca ptr, align 8
  store ptr %0, ptr %3, align 8
  store ptr %1, ptr %4, align 8
  %6 = load ptr, ptr %4, align 8
  %7 = call noalias ptr @fopen(ptr noundef %6, ptr noundef @.str.17)
  store ptr %7, ptr %5, align 8
  %8 = load ptr, ptr %5, align 8
  %9 = icmp ne ptr %8, null
  br i1 %9, label %11, label %10

10:                                               ; preds = %2
  br label %18

11:                                               ; preds = %2
  %12 = load ptr, ptr %5, align 8
  %13 = load ptr, ptr %3, align 8
  %14 = call ptr @Vec_StrArray(ptr noundef %13)
  %15 = call i32 (ptr, ptr, ...) @fprintf(ptr noundef %12, ptr noundef @.str.103, ptr noundef %14) #13
  %16 = load ptr, ptr %5, align 8
  %17 = call i32 @fclose(ptr noundef %16)
  br label %18

18:                                               ; preds = %11, %10
  ret void
}

; Function Attrs: nounwind uwtable
define void @Acb_GenerateFile2(ptr noundef %0, ptr noundef %1, ptr noundef %2, ptr noundef %3, ptr noundef %4, i32 noundef %5) #0 {
  %7 = alloca ptr, align 8
  %8 = alloca ptr, align 8
  %9 = alloca ptr, align 8
  %10 = alloca ptr, align 8
  %11 = alloca ptr, align 8
  %12 = alloca i32, align 4
  %13 = alloca ptr, align 8
  %14 = alloca ptr, align 8
  store ptr %0, ptr %7, align 8
  store ptr %1, ptr %8, align 8
  store ptr %2, ptr %9, align 8
  store ptr %3, ptr %10, align 8
  store ptr %4, ptr %11, align 8
  store i32 %5, ptr %12, align 4
  %15 = load ptr, ptr %8, align 8
  %16 = load ptr, ptr %9, align 8
  %17 = call ptr @Acb_GenerateInstance2(ptr noundef %15, ptr noundef %16)
  store ptr %17, ptr %13, align 8
  %18 = load ptr, ptr %7, align 8
  %19 = load ptr, ptr %8, align 8
  %20 = load ptr, ptr %9, align 8
  %21 = call ptr @Acb_GeneratePatch2(ptr noundef %18, ptr noundef %19, ptr noundef %20)
  store ptr %21, ptr %14, align 8
  %22 = load ptr, ptr %14, align 8
  call void @Acb_GenerateFilePatch(ptr noundef %22, ptr noundef @.str.98)
  %23 = call i32 (ptr, ...) @printf(ptr noundef @.str.99, ptr noundef @.str.98)
  %24 = load ptr, ptr %10, align 8
  %25 = load ptr, ptr %9, align 8
  %26 = load i32, ptr %12, align 4
  call void @Acb_NtkInsert(ptr noundef %24, ptr noundef @.str.100, ptr noundef %25, i32 noundef 0, i32 noundef %26)
  %27 = call i32 (ptr, ...) @printf(ptr noundef @.str.101, ptr noundef @.str.100)
  %28 = load ptr, ptr %13, align 8
  %29 = load ptr, ptr %11, align 8
  %30 = load ptr, ptr %14, align 8
  call void @Acb_GenerateFileOut(ptr noundef %28, ptr noundef @.str.100, ptr noundef %29, ptr noundef %30)
  %31 = load ptr, ptr %11, align 8
  %32 = call i32 (ptr, ...) @printf(ptr noundef @.str.102, ptr noundef %31)
  %33 = load ptr, ptr %13, align 8
  call void @Vec_StrFree(ptr noundef %33)
  %34 = load ptr, ptr %14, align 8
  call void @Vec_StrFree(ptr noundef %34)
  ret void
}