; Function Attrs: nounwind uwtable
define void @Acb_GenerateFile2(ptr noundef %0, ptr noundef readonly captures(none) %1, ptr noundef %2, ptr noundef %3, ptr noundef %4, i32 noundef %5) local_unnamed_addr #0 {
  %7 = tail call ptr @Acb_GenerateInstance2(ptr noundef %1, ptr noundef %2)
  %8 = tail call ptr @Acb_GeneratePatch2(ptr noundef %0, ptr noundef %1, ptr noundef %2)
  %9 = tail call noalias ptr @fopen(ptr noundef nonnull @.str.98, ptr noundef nonnull @.str.17)
  %.not.i = icmp eq ptr %9, null
  br i1 %.not.i, label %Acb_GenerateFilePatch.exit, label %10

10:                                               ; preds = %6
  %11 = getelementptr i8, ptr %8, i64 8
  %.val.i = load ptr, ptr %11, align 8
  %fputs.i = tail call i32 @fputs(ptr %.val.i, ptr nonnull %9)
  %12 = tail call i32 @fclose(ptr noundef nonnull %9)
  br label %Acb_GenerateFilePatch.exit

Acb_GenerateFilePatch.exit:                       ; preds = %6, %10
  %13 = tail call i32 (ptr, ...) @printf(ptr noundef nonnull dereferenceable(1) @.str.99, ptr noundef nonnull @.str.98)
  tail call void @Acb_NtkInsert(ptr noundef %3, ptr noundef nonnull @.str.100, ptr noundef %2, i32 noundef 0, i32 noundef %5) #31
  %14 = tail call i32 (ptr, ...) @printf(ptr noundef nonnull dereferenceable(1) @.str.101, ptr noundef nonnull @.str.100)
  tail call void @Acb_GenerateFileOut(ptr noundef %7, ptr noundef nonnull @.str.100, ptr noundef %4, ptr noundef %8)
  %15 = tail call i32 (ptr, ...) @printf(ptr noundef nonnull dereferenceable(1) @.str.102, ptr noundef %4)
  %16 = getelementptr inbounds nuw i8, ptr %7, i64 8
  %17 = load ptr, ptr %16, align 8
  %.not.i14 = icmp eq ptr %17, null
  br i1 %.not.i14, label %Vec_StrFree.exit, label %18

18:                                               ; preds = %Acb_GenerateFilePatch.exit
  tail call void @free(ptr noundef nonnull %17) #31
  br label %Vec_StrFree.exit

Vec_StrFree.exit:                                 ; preds = %Acb_GenerateFilePatch.exit, %18
  tail call void @free(ptr noundef nonnull %7) #31
  %19 = getelementptr inbounds nuw i8, ptr %8, i64 8
  %20 = load ptr, ptr %19, align 8
  %.not.i15 = icmp eq ptr %20, null
  br i1 %.not.i15, label %Vec_StrFree.exit16, label %21

21:                                               ; preds = %Vec_StrFree.exit
  tail call void @free(ptr noundef nonnull %20) #31
  br label %Vec_StrFree.exit16

Vec_StrFree.exit16:                               ; preds = %Vec_StrFree.exit, %21
  tail call void @free(ptr noundef nonnull %8) #31
  ret void
}